target datalayout = "e-m:e-p270:32:32-p271:32:32-p272:64:64-i64:64-i128:128-f80:128-n8:16:32:64-S128"
target triple = "x86_64-pc-linux-gnu"

%"struct.cv::detail::CheckContext" = type { ptr, ptr, i32, i32, ptr, ptr, ptr }
%"class.cv::Rect_" = type { i32, i32, i32, i32 }
%"class.cv::Size_" = type { i32, i32 }
%"class.cv::FileNode" = type { ptr, i64, i64 }
%"class.cv::FileNodeIterator" = type { ptr, i64, i64, i64, i64, i64 }
%"struct.cv::LBPEvaluator::Feature" = type { %"class.cv::Rect_" }

@.str.22 = private unnamed_addr constant [5 x i8] c"rect\00", align 1
@_ZZN2cv12LBPEvaluator7Feature4readERKNS_8FileNodeERKNS_5Size_IiEEE15__cv_check__787 = internal constant %"struct.cv::detail::CheckContext" { ptr @.str.23, ptr @.str.1, i32 787, i32 5, ptr @.str.24, ptr @.str.25, ptr @.str.11 }, align 8
@_ZZN2cv12LBPEvaluator7Feature4readERKNS_8FileNodeERKNS_5Size_IiEEE15__cv_check__788 = internal constant %"struct.cv::detail::CheckContext" { ptr @.str.23, ptr @.str.1, i32 788, i32 5, ptr @.str.24, ptr @.str.26, ptr @.str.11 }, align 8
@_ZZN2cv12LBPEvaluator7Feature4readERKNS_8FileNodeERKNS_5Size_IiEEE15__cv_check__789 = internal constant %"struct.cv::detail::CheckContext" { ptr @.str.23, ptr @.str.1, i32 789, i32 4, ptr @.str.24, ptr @.str.25, ptr @.str.13 }, align 8
@_ZZN2cv12LBPEvaluator7Feature4readERKNS_8FileNodeERKNS_5Size_IiEEE15__cv_check__790 = internal constant %"struct.cv::detail::CheckContext" { ptr @.str.23, ptr @.str.1, i32 790, i32 4, ptr @.str.24, ptr @.str.26, ptr @.str.14 }, align 8
@_ZZN2cv12LBPEvaluator7Feature4readERKNS_8FileNodeERKNS_5Size_IiEEE15__cv_check__791 = internal constant %"struct.cv::detail::CheckContext" { ptr @.str.23, ptr @.str.1, i32 791, i32 3, ptr @.str.24, ptr @.str.27, ptr @.str.13 }, align 8
@_ZZN2cv12LBPEvaluator7Feature4readERKNS_8FileNodeERKNS_5Size_IiEEE15__cv_check__792 = internal constant %"struct.cv::detail::CheckContext" { ptr @.str.23, ptr @.str.1, i32 792, i32 3, ptr @.str.24, ptr @.str.28, ptr @.str.14 }, align 8

; Function Attrs: inlinehint mustprogress uwtable
define internal noundef nonnull align 8 dereferenceable(48) ptr @_ZN2cvrsIiEERNS_16FileNodeIteratorES2_RT_(ptr noundef nonnull align 8 dereferenceable(48) %0, ptr noundef nonnull align 4 dereferenceable(4) %1) #8 {
  %3 = alloca ptr, align 8
  %4 = alloca ptr, align 8
  %5 = alloca %"class.cv::FileNode", align 8
  store ptr %0, ptr %3, align 8, !tbaa !190
  store ptr %1, ptr %4, align 8, !tbaa !45
  call void @llvm.lifetime.start.p0(i64 24, ptr %5) #3
  %6 = load ptr, ptr %3, align 8, !tbaa !190
  call void @_ZNK2cv16FileNodeIteratordeEv(ptr dead_on_unwind writable sret(%"class.cv::FileNode") align 8 %5, ptr noundef nonnull align 8 dereferenceable(48) %6)
  %7 = load ptr, ptr %4, align 8, !tbaa !45
  call void @_ZN2cv4readERKNS_8FileNodeERii(ptr noundef nonnull align 8 dereferenceable(24) %5, ptr noundef nonnull align 4 dereferenceable(4) %7, i32 noundef 0)
  call void @llvm.lifetime.end.p0(i64 24, ptr %5) #3
  %8 = load ptr, ptr %3, align 8, !tbaa !190
  %9 = call noundef nonnull align 8 dereferenceable(48) ptr @_ZN2cv16FileNodeIteratorppEv(ptr noundef nonnull align 8 dereferenceable(48) %8)
  ret ptr %9
}

; Function Attrs: mustprogress uwtable
define hidden noundef zeroext i1 @_ZN2cv12LBPEvaluator7Feature4readERKNS_8FileNodeERKNS_5Size_IiEE(ptr noundef nonnull align 4 dereferenceable(16) %0, ptr noundef nonnull align 8 dereferenceable(24) %1, ptr noundef nonnull align 4 dereferenceable(8) %2) #4 align 2 {
  %4 = alloca ptr, align 8
  %5 = alloca ptr, align 8
  %6 = alloca ptr, align 8
  %7 = alloca %"class.cv::FileNode", align 8
  %8 = alloca %"class.cv::FileNodeIterator", align 8
  %9 = alloca i32, align 4
  %10 = alloca i32, align 4
  store ptr %0, ptr %4, align 8, !tbaa !253
  store ptr %1, ptr %5, align 8, !tbaa !100
  store ptr %2, ptr %6, align 8, !tbaa !102
  %11 = load ptr, ptr %4, align 8
  call void @llvm.lifetime.start.p0(i64 24, ptr %7) #3
  %12 = load ptr, ptr %5, align 8, !tbaa !100
  call void @_ZNK2cv8FileNodeixEPKc(ptr dead_on_unwind writable sret(%"class.cv::FileNode") align 8 %7, ptr noundef nonnull align 8 dereferenceable(24) %12, ptr noundef @.str.22)
  call void @llvm.lifetime.start.p0(i64 48, ptr %8) #3
  call void @_ZNK2cv8FileNode5beginEv(ptr dead_on_unwind writable sret(%"class.cv::FileNodeIterator") align 8 %8, ptr noundef nonnull align 8 dereferenceable(24) %7)
  %13 = getelementptr inbounds nuw %"struct.cv::LBPEvaluator::Feature", ptr %11, i32 0, i32 0
  %14 = getelementptr inbounds nuw %"class.cv::Rect_", ptr %13, i32 0, i32 0
  %15 = call noundef nonnull align 8 dereferenceable(48) ptr @_ZN2cvrsIiEERNS_16FileNodeIteratorES2_RT_(ptr noundef nonnull align 8 dereferenceable(48) %8, ptr noundef nonnull align 4 dereferenceable(4) %14)
  %16 = getelementptr inbounds nuw %"struct.cv::LBPEvaluator::Feature", ptr %11, i32 0, i32 0
  %17 = getelementptr inbounds nuw %"class.cv::Rect_", ptr %16, i32 0, i32 1
  %18 = call noundef nonnull align 8 dereferenceable(48) ptr @_ZN2cvrsIiEERNS_16FileNodeIteratorES2_RT_(ptr noundef nonnull align 8 dereferenceable(48) %15, ptr noundef nonnull align 4 dereferenceable(4) %17)
  %19 = getelementptr inbounds nuw %"struct.cv::LBPEvaluator::Feature", ptr %11, i32 0, i32 0
  %20 = getelementptr inbounds nuw %"class.cv::Rect_", ptr %19, i32 0, i32 2
  %21 = call noundef nonnull align 8 dereferenceable(48) ptr @_ZN2cvrsIiEERNS_16FileNodeIteratorES2_RT_(ptr noundef nonnull align 8 dereferenceable(48) %18, ptr noundef nonnull align 4 dereferenceable(4) %20)
  %22 = getelementptr inbounds nuw %"struct.cv::LBPEvaluator::Feature", ptr %11, i32 0, i32 0
  %23 = getelementptr inbounds nuw %"class.cv::Rect_", ptr %22, i32 0, i32 3
  %24 = call noundef nonnull align 8 dereferenceable(48) ptr @_ZN2cvrsIiEERNS_16FileNodeIteratorES2_RT_(ptr noundef nonnull align 8 dereferenceable(48) %21, ptr noundef nonnull align 4 dereferenceable(4) %23)
  call void @llvm.lifetime.start.p0(i64 4, ptr %9) #3
  %25 = load ptr, ptr %6, align 8, !tbaa !102
  %26 = getelementptr inbounds nuw %"class.cv::Size_", ptr %25, i32 0, i32 0
  %27 = load i32, ptr %26, align 4, !tbaa !92
  store i32 %27, ptr %9, align 4, !tbaa !8
  call void @llvm.lifetime.start.p0(i64 4, ptr %10) #3
  %28 = load ptr, ptr %6, align 8, !tbaa !102
  %29 = getelementptr inbounds nuw %"class.cv::Size_", ptr %28, i32 0, i32 1
  %30 = load i32, ptr %29, align 4, !tbaa !94
  store i32 %30, ptr %10, align 4, !tbaa !8
  br label %31

31:                                               ; preds = %3
  %32 = getelementptr inbounds nuw %"struct.cv::LBPEvaluator::Feature", ptr %11, i32 0, i32 0
  %33 = getelementptr inbounds nuw %"class.cv::Rect_", ptr %32, i32 0, i32 0
  %34 = load i32, ptr %33, align 4, !tbaa !255
  %35 = icmp sge i32 %34, 0
  br i1 %35, label %36, label %37

36:                                               ; preds = %31
  br label %41

37:                                               ; preds = %31
  %38 = getelementptr inbounds nuw %"struct.cv::LBPEvaluator::Feature", ptr %11, i32 0, i32 0
  %39 = getelementptr inbounds nuw %"class.cv::Rect_", ptr %38, i32 0, i32 0
  %40 = load i32, ptr %39, align 4, !tbaa !255
  call void @_ZN2cv6detail17check_failed_autoEiiRKNS0_12CheckContextE(i32 noundef %40, i32 noundef 0, ptr noundef nonnull align 8 dereferenceable(48) @_ZZN2cv12LBPEvaluator7Feature4readERKNS_8FileNodeERKNS_5Size_IiEEE15__cv_check__787) #23
  unreachable

41:                                               ; preds = %36
  br label %42

42:                                               ; preds = %41
  br label %43

43:                                               ; preds = %42
  br label %44

44:                                               ; preds = %43
  %45 = getelementptr inbounds nuw %"struct.cv::LBPEvaluator::Feature", ptr %11, i32 0, i32 0
  %46 = getelementptr inbounds nuw %"class.cv::Rect_", ptr %45, i32 0, i32 1
  %47 = load i32, ptr %46, align 4, !tbaa !257
  %48 = icmp sge i32 %47, 0
  br i1 %48, label %49, label %50

49:                                               ; preds = %44
  br label %54

50:                                               ; preds = %44
  %51 = getelementptr inbounds nuw %"struct.cv::LBPEvaluator::Feature", ptr %11, i32 0, i32 0
  %52 = getelementptr inbounds nuw %"class.cv::Rect_", ptr %51, i32 0, i32 1
  %53 = load i32, ptr %52, align 4, !tbaa !257
  call void @_ZN2cv6detail17check_failed_autoEiiRKNS0_12CheckContextE(i32 noundef %53, i32 noundef 0, ptr noundef nonnull align 8 dereferenceable(48) @_ZZN2cv12LBPEvaluator7Feature4readERKNS_8FileNodeERKNS_5Size_IiEEE15__cv_check__788) #23
  unreachable

54:                                               ; preds = %49
  br label %55

55:                                               ; preds = %54
  br label %56

56:                                               ; preds = %55
  br label %57

57:                                               ; preds = %56
  %58 = getelementptr inbounds nuw %"struct.cv::LBPEvaluator::Feature", ptr %11, i32 0, i32 0
  %59 = getelementptr inbounds nuw %"class.cv::Rect_", ptr %58, i32 0, i32 0
  %60 = load i32, ptr %59, align 4, !tbaa !255
  %61 = load i32, ptr %9, align 4, !tbaa !8
  %62 = icmp slt i32 %60, %61
  br i1 %62, label %63, label %64

63:                                               ; preds = %57
  br label %69

64:                                               ; preds = %57
  %65 = getelementptr inbounds nuw %"struct.cv::LBPEvaluator::Feature", ptr %11, i32 0, i32 0
  %66 = getelementptr inbounds nuw %"class.cv::Rect_", ptr %65, i32 0, i32 0
  %67 = load i32, ptr %66, align 4, !tbaa !255
  %68 = load i32, ptr %9, align 4, !tbaa !8
  call void @_ZN2cv6detail17check_failed_autoEiiRKNS0_12CheckContextE(i32 noundef %67, i32 noundef %68, ptr noundef nonnull align 8 dereferenceable(48) @_ZZN2cv12LBPEvaluator7Feature4readERKNS_8FileNodeERKNS_5Size_IiEEE15__cv_check__789) #23
  unreachable

69:                                               ; preds = %63
  br label %70

70:                                               ; preds = %69
  br label %71

71:                                               ; preds = %70
  br label %72

72:                                               ; preds = %71
  %73 = getelementptr inbounds nuw %"struct.cv::LBPEvaluator::Feature", ptr %11, i32 0, i32 0
  %74 = getelementptr inbounds nuw %"class.cv::Rect_", ptr %73, i32 0, i32 1
  %75 = load i32, ptr %74, align 4, !tbaa !257
  %76 = load i32, ptr %10, align 4, !tbaa !8
  %77 = icmp slt i32 %75, %76
  br i1 %77, label %78, label %79

78:                                               ; preds = %72
  br label %84

79:                                               ; preds = %72
  %80 = getelementptr inbounds nuw %"struct.cv::LBPEvaluator::Feature", ptr %11, i32 0, i32 0
  %81 = getelementptr inbounds nuw %"class.cv::Rect_", ptr %80, i32 0, i32 1
  %82 = load i32, ptr %81, align 4, !tbaa !257
  %83 = load i32, ptr %10, align 4, !tbaa !8
  call void @_ZN2cv6detail17check_failed_autoEiiRKNS0_12CheckContextE(i32 noundef %82, i32 noundef %83, ptr noundef nonnull align 8 dereferenceable(48) @_ZZN2cv12LBPEvaluator7Feature4readERKNS_8FileNodeERKNS_5Size_IiEEE15__cv_check__790) #23
  unreachable

84:                                               ; preds = %78
  br label %85

85:                                               ; preds = %84
  br label %86

86:                                               ; preds = %85
  br label %87

87:                                               ; preds = %86
  %88 = getelementptr inbounds nuw %"struct.cv::LBPEvaluator::Feature", ptr %11, i32 0, i32 0
  %89 = getelementptr inbounds nuw %"class.cv::Rect_", ptr %88, i32 0, i32 0
  %90 = load i32, ptr %89, align 4, !tbaa !255
  %91 = getelementptr inbounds nuw %"struct.cv::LBPEvaluator::Feature", ptr %11, i32 0, i32 0
  %92 = getelementptr inbounds nuw %"class.cv::Rect_", ptr %91, i32 0, i32 2
  %93 = load i32, ptr %92, align 4, !tbaa !258
  %94 = add nsw i32 %90, %93
  %95 = load i32, ptr %9, align 4, !tbaa !8
  %96 = icmp sle i32 %94, %95
  br i1 %96, label %97, label %98

97:                                               ; preds = %87
  br label %107

98:                                               ; preds = %87
  %99 = getelementptr inbounds nuw %"struct.cv::LBPEvaluator::Feature", ptr %11, i32 0, i32 0
  %100 = getelementptr inbounds nuw %"class.cv::Rect_", ptr %99, i32 0, i32 0
  %101 = load i32, ptr %100, align 4, !tbaa !255
  %102 = getelementptr inbounds nuw %"struct.cv::LBPEvaluator::Feature", ptr %11, i32 0, i32 0
  %103 = getelementptr inbounds nuw %"class.cv::Rect_", ptr %102, i32 0, i32 2
  %104 = load i32, ptr %103, align 4, !tbaa !258
  %105 = add nsw i32 %101, %104
  %106 = load i32, ptr %9, align 4, !tbaa !8
  call void @_ZN2cv6detail17check_failed_autoEiiRKNS0_12CheckContextE(i32 noundef %105, i32 noundef %106, ptr noundef nonnull align 8 dereferenceable(48) @_ZZN2cv12LBPEvaluator7Feature4readERKNS_8FileNodeERKNS_5Size_IiEEE15__cv_check__791) #23
  unreachable

107:                                              ; preds = %97
  br label %108

108:                                              ; preds = %107
  br label %109

109:                                              ; preds = %108
  br label %110

110:                                              ; preds = %109
  %111 = getelementptr inbounds nuw %"struct.cv::LBPEvaluator::Feature", ptr %11, i32 0, i32 0
  %112 = getelementptr inbounds nuw %"class.cv::Rect_", ptr %111, i32 0, i32 1
  %113 = load i32, ptr %112, align 4, !tbaa !257
  %114 = getelementptr inbounds nuw %"struct.cv::LBPEvaluator::Feature", ptr %11, i32 0, i32 0
  %115 = getelementptr inbounds nuw %"class.cv::Rect_", ptr %114, i32 0, i32 3
  %116 = load i32, ptr %115, align 4, !tbaa !259
  %117 = add nsw i32 %113, %116
  %118 = load i32, ptr %10, align 4, !tbaa !8
  %119 = icmp sle i32 %117, %118
  br i1 %119, label %120, label %121

120:                                              ; preds = %110
  br label %130

121:                                              ; preds = %110
  %122 = getelementptr inbounds nuw %"struct.cv::LBPEvaluator::Feature", ptr %11, i32 0, i32 0
  %123 = getelementptr inbounds nuw %"class.cv::Rect_", ptr %122, i32 0, i32 1
  %124 = load i32, ptr %123, align 4, !tbaa !257
  %125 = getelementptr inbounds nuw %"struct.cv::LBPEvaluator::Feature", ptr %11, i32 0, i32 0
  %126 = getelementptr inbounds nuw %"class.cv::Rect_", ptr %125, i32 0, i32 3
  %127 = load i32, ptr %126, align 4, !tbaa !259
  %128 = add nsw i32 %124, %127
  %129 = load i32, ptr %10, align 4, !tbaa !8
  call void @_ZN2cv6detail17check_failed_autoEiiRKNS0_12CheckContextE(i32 noundef %128, i32 noundef %129, ptr noundef nonnull align 8 dereferenceable(48) @_ZZN2cv12LBPEvaluator7Feature4readERKNS_8FileNodeERKNS_5Size_IiEEE15__cv_check__792) #23
  unreachable

130:                                              ; preds = %120
  br label %131

131:                                              ; preds = %130
  br label %132

132:                                              ; preds = %131
  call void @llvm.lifetime.end.p0(i64 4, ptr %10) #3
  call void @llvm.lifetime.end.p0(i64 4, ptr %9) #3
  call void @llvm.lifetime.end.p0(i64 48, ptr %8) #3
  call void @llvm.lifetime.end.p0(i64 24, ptr %7) #3
  ret i1 true
}