; Function Attrs: mustprogress uwtable
define hidden noundef zeroext i1 @_ZN2cv12LBPEvaluator7Feature4readERKNS_8FileNodeERKNS_5Size_IiEE(ptr noundef nonnull align 4 dereferenceable(16) %0, ptr noundef nonnull align 8 dereferenceable(24) %1, ptr noundef nonnull readonly align 4 captures(none) dereferenceable(8) %2) local_unnamed_addr #5 align 2 {
  %4 = alloca %"class.cv::FileNode", align 8
  %5 = alloca %"class.cv::FileNode", align 8
  %6 = alloca %"class.cv::FileNode", align 8
  %7 = alloca %"class.cv::FileNode", align 8
  %8 = alloca %"class.cv::FileNode", align 8
  %9 = alloca %"class.cv::FileNodeIterator", align 8
  call void @llvm.lifetime.start.p0(i64 24, ptr nonnull %8) #32
  call void @_ZNK2cv8FileNodeixEPKc(ptr dead_on_unwind nonnull writable sret(%"class.cv::FileNode") align 8 %8, ptr noundef nonnull align 8 dereferenceable(24) %1, ptr noundef nonnull @.str.22)
  call void @llvm.lifetime.start.p0(i64 48, ptr nonnull %9) #32
  call void @_ZNK2cv8FileNode5beginEv(ptr dead_on_unwind nonnull writable sret(%"class.cv::FileNodeIterator") align 8 %9, ptr noundef nonnull align 8 dereferenceable(24) %8)
  call void @llvm.lifetime.start.p0(i64 24, ptr nonnull %7) #32
  call void @_ZNK2cv16FileNodeIteratordeEv(ptr dead_on_unwind nonnull writable sret(%"class.cv::FileNode") align 8 %7, ptr noundef nonnull align 8 dereferenceable(48) %9)
  call void @_ZN2cv4readERKNS_8FileNodeERii(ptr noundef nonnull align 8 dereferenceable(24) %7, ptr noundef nonnull align 4 dereferenceable(4) %0, i32 noundef 0)
  call void @llvm.lifetime.end.p0(i64 24, ptr nonnull %7) #32
  %10 = call noundef nonnull align 8 dereferenceable(48) ptr @_ZN2cv16FileNodeIteratorppEv(ptr noundef nonnull align 8 dereferenceable(48) %9)
  %11 = getelementptr inbounds nuw i8, ptr %0, i64 4
  call void @llvm.lifetime.start.p0(i64 24, ptr nonnull %6) #32
  call void @_ZNK2cv16FileNodeIteratordeEv(ptr dead_on_unwind nonnull writable sret(%"class.cv::FileNode") align 8 %6, ptr noundef nonnull align 8 dereferenceable(48) %10)
  call void @_ZN2cv4readERKNS_8FileNodeERii(ptr noundef nonnull align 8 dereferenceable(24) %6, ptr noundef nonnull align 4 dereferenceable(4) %11, i32 noundef 0)
  call void @llvm.lifetime.end.p0(i64 24, ptr nonnull %6) #32
  %12 = call noundef nonnull align 8 dereferenceable(48) ptr @_ZN2cv16FileNodeIteratorppEv(ptr noundef nonnull align 8 dereferenceable(48) %10)
  %13 = getelementptr inbounds nuw i8, ptr %0, i64 8
  call void @llvm.lifetime.start.p0(i64 24, ptr nonnull %5) #32
  call void @_ZNK2cv16FileNodeIteratordeEv(ptr dead_on_unwind nonnull writable sret(%"class.cv::FileNode") align 8 %5, ptr noundef nonnull align 8 dereferenceable(48) %12)
  call void @_ZN2cv4readERKNS_8FileNodeERii(ptr noundef nonnull align 8 dereferenceable(24) %5, ptr noundef nonnull align 4 dereferenceable(4) %13, i32 noundef 0)
  call void @llvm.lifetime.end.p0(i64 24, ptr nonnull %5) #32
  %14 = call noundef nonnull align 8 dereferenceable(48) ptr @_ZN2cv16FileNodeIteratorppEv(ptr noundef nonnull align 8 dereferenceable(48) %12)
  %15 = getelementptr inbounds nuw i8, ptr %0, i64 12
  call void @llvm.lifetime.start.p0(i64 24, ptr nonnull %4) #32
  call void @_ZNK2cv16FileNodeIteratordeEv(ptr dead_on_unwind nonnull writable sret(%"class.cv::FileNode") align 8 %4, ptr noundef nonnull align 8 dereferenceable(48) %14)
  call void @_ZN2cv4readERKNS_8FileNodeERii(ptr noundef nonnull align 8 dereferenceable(24) %4, ptr noundef nonnull align 4 dereferenceable(4) %15, i32 noundef 0)
  call void @llvm.lifetime.end.p0(i64 24, ptr nonnull %4) #32
  %16 = call noundef nonnull align 8 dereferenceable(48) ptr @_ZN2cv16FileNodeIteratorppEv(ptr noundef nonnull align 8 dereferenceable(48) %14)
  %17 = load i32, ptr %2, align 4, !tbaa !150
  %18 = getelementptr inbounds nuw i8, ptr %2, i64 4
  %19 = load i32, ptr %18, align 4, !tbaa !155
  %20 = load i32, ptr %0, align 4, !tbaa !244
  %21 = icmp sgt i32 %20, -1
  br i1 %21, label %23, label %22

22:                                               ; preds = %3
  call void @_ZN2cv6detail17check_failed_autoEiiRKNS0_12CheckContextE(i32 noundef %20, i32 noundef 0, ptr noundef nonnull align 8 dereferenceable(48) @_ZZN2cv12LBPEvaluator7Feature4readERKNS_8FileNodeERKNS_5Size_IiEEE15__cv_check__787) #33
  unreachable

23:                                               ; preds = %3
  %24 = load i32, ptr %11, align 4, !tbaa !246
  %25 = icmp sgt i32 %24, -1
  br i1 %25, label %27, label %26

26:                                               ; preds = %23
  call void @_ZN2cv6detail17check_failed_autoEiiRKNS0_12CheckContextE(i32 noundef %24, i32 noundef 0, ptr noundef nonnull align 8 dereferenceable(48) @_ZZN2cv12LBPEvaluator7Feature4readERKNS_8FileNodeERKNS_5Size_IiEEE15__cv_check__788) #33
  unreachable

27:                                               ; preds = %23
  %28 = icmp slt i32 %20, %17
  br i1 %28, label %30, label %29

29:                                               ; preds = %27
  call void @_ZN2cv6detail17check_failed_autoEiiRKNS0_12CheckContextE(i32 noundef %20, i32 noundef %17, ptr noundef nonnull align 8 dereferenceable(48) @_ZZN2cv12LBPEvaluator7Feature4readERKNS_8FileNodeERKNS_5Size_IiEEE15__cv_check__789) #33
  unreachable

30:                                               ; preds = %27
  %31 = icmp slt i32 %24, %19
  br i1 %31, label %33, label %32

32:                                               ; preds = %30
  call void @_ZN2cv6detail17check_failed_autoEiiRKNS0_12CheckContextE(i32 noundef %24, i32 noundef %19, ptr noundef nonnull align 8 dereferenceable(48) @_ZZN2cv12LBPEvaluator7Feature4readERKNS_8FileNodeERKNS_5Size_IiEEE15__cv_check__790) #33
  unreachable

33:                                               ; preds = %30
  %34 = load i32, ptr %13, align 4, !tbaa !247
  %35 = add nsw i32 %34, %20
  %.not = icmp sgt i32 %35, %17
  br i1 %.not, label %36, label %37

36:                                               ; preds = %33
  call void @_ZN2cv6detail17check_failed_autoEiiRKNS0_12CheckContextE(i32 noundef %35, i32 noundef %17, ptr noundef nonnull align 8 dereferenceable(48) @_ZZN2cv12LBPEvaluator7Feature4readERKNS_8FileNodeERKNS_5Size_IiEEE15__cv_check__791) #33
  unreachable

37:                                               ; preds = %33
  %38 = load i32, ptr %15, align 4, !tbaa !248
  %39 = add nsw i32 %38, %24
  %.not18 = icmp sgt i32 %39, %19
  br i1 %.not18, label %40, label %41

40:                                               ; preds = %37
  call void @_ZN2cv6detail17check_failed_autoEiiRKNS0_12CheckContextE(i32 noundef %39, i32 noundef %19, ptr noundef nonnull align 8 dereferenceable(48) @_ZZN2cv12LBPEvaluator7Feature4readERKNS_8FileNodeERKNS_5Size_IiEEE15__cv_check__792) #33
  unreachable

41:                                               ; preds = %37
  call void @llvm.lifetime.end.p0(i64 48, ptr nonnull %9) #32
  call void @llvm.lifetime.end.p0(i64 24, ptr nonnull %8) #32
  ret i1 true
}